target datalayout = "e-m:e-p270:32:32-p271:32:32-p272:64:64-i64:64-i128:128-f80:128-n8:16:32:64-S128"
target triple = "x86_64-unknown-linux-gnu"

%"class.arrow::compute::KeyColumnArray" = type { [3 x ptr], [3 x ptr], %"struct.arrow::compute::KeyColumnMetadata", i64, [2 x i32] }
%"struct.arrow::compute::KeyColumnMetadata" = type { i8, i8, i32 }

; Function Attrs: mustprogress nounwind uwtable
define noundef zeroext i1 @_ZN5arrow7compute14EncoderInteger9IsBooleanERKNS0_17KeyColumnMetadataE(ptr noundef nonnull align 4 dereferenceable(8) %metadata) #2 align 2 {
entry:
  %metadata.addr = alloca ptr, align 8
  store ptr %metadata, ptr %metadata.addr, align 8
  %0 = load ptr, ptr %metadata.addr, align 8
  %is_fixed_length = getelementptr inbounds %"struct.arrow::compute::KeyColumnMetadata", ptr %0, i32 0, i32 0
  %1 = load i8, ptr %is_fixed_length, align 4
  %tobool = trunc i8 %1 to i1
  br i1 %tobool, label %land.lhs.true, label %land.end

land.lhs.true:                                    ; preds = %entry
  %2 = load ptr, ptr %metadata.addr, align 8
  %fixed_length = getelementptr inbounds %"struct.arrow::compute::KeyColumnMetadata", ptr %2, i32 0, i32 2
  %3 = load i32, ptr %fixed_length, align 4
  %cmp = icmp eq i32 %3, 0
  br i1 %cmp, label %land.rhs, label %land.end

land.rhs:                                         ; preds = %land.lhs.true
  %4 = load ptr, ptr %metadata.addr, align 8
  %is_null_type = getelementptr inbounds %"struct.arrow::compute::KeyColumnMetadata", ptr %4, i32 0, i32 1
  %5 = load i8, ptr %is_null_type, align 1
  %tobool1 = trunc i8 %5 to i1
  %lnot = xor i1 %tobool1, true
  br label %land.end

land.end:                                         ; preds = %land.rhs, %land.lhs.true, %entry
  %6 = phi i1 [ false, %land.lhs.true ], [ false, %entry ], [ %lnot, %land.rhs ]
  ret i1 %6
}

; Function Attrs: mustprogress nounwind uwtable
define linkonce_odr noundef nonnull align 4 dereferenceable(8) ptr @_ZNK5arrow7compute14KeyColumnArray8metadataEv(ptr noundef nonnull align 8 dereferenceable(72) %this) #2 comdat align 2 {
entry:
  %this.addr = alloca ptr, align 8
  store ptr %this, ptr %this.addr, align 8
  %this1 = load ptr, ptr %this.addr, align 8
  %metadata_ = getelementptr inbounds %"class.arrow::compute::KeyColumnArray", ptr %this1, i32 0, i32 2
  ret ptr %metadata_
}

; Function Attrs: mustprogress uwtable
define noundef zeroext i1 @_ZN5arrow7compute14EncoderInteger13UsesTransformERKNS0_14KeyColumnArrayE(ptr noundef nonnull align 8 dereferenceable(72) %column) #0 align 2 {
entry:
  %column.addr = alloca ptr, align 8
  store ptr %column, ptr %column.addr, align 8
  %0 = load ptr, ptr %column.addr, align 8
  %call = call noundef nonnull align 4 dereferenceable(8) ptr @_ZNK5arrow7compute14KeyColumnArray8metadataEv(ptr noundef nonnull align 8 dereferenceable(72) %0)
  %call1 = call noundef zeroext i1 @_ZN5arrow7compute14EncoderInteger9IsBooleanERKNS0_17KeyColumnMetadataE(ptr noundef nonnull align 4 dereferenceable(8) %call)
  ret i1 %call1
}