; Function Attrs: mustprogress nofree norecurse nosync nounwind willreturn memory(argmem: read) uwtable
define noundef zeroext i1 @_ZN5arrow7compute14EncoderInteger13UsesTransformERKNS0_14KeyColumnArrayE(ptr noundef nonnull readonly align 8 captures(none) dereferenceable(72) %column) local_unnamed_addr #5 align 2 {
entry:
  %metadata_.i = getelementptr inbounds nuw i8, ptr %column, i64 48
  %0 = load i8, ptr %metadata_.i, align 8
  %tobool.i = trunc i8 %0 to i1
  %fixed_length.i = getelementptr inbounds nuw i8, ptr %column, i64 52
  %1 = load i32, ptr %fixed_length.i, align 4
  %cmp.i = icmp eq i32 %1, 0
  %or.cond.i = select i1 %tobool.i, i1 %cmp.i, i1 false
  %is_null_type.i = getelementptr inbounds nuw i8, ptr %column, i64 49
  %2 = load i8, ptr %is_null_type.i, align 1
  %tobool1.i = trunc i8 %2 to i1
  %lnot.i = xor i1 %tobool1.i, true
  %3 = select i1 %or.cond.i, i1 %lnot.i, i1 false
  ret i1 %3
}